; Function Attrs: nounwind uwtable
define range(i32 0, 2) i32 @test_BN_ne(ptr noundef %0, i32 noundef %1, ptr noundef %2, ptr noundef %3, ptr noundef %4, ptr noundef %5) local_unnamed_addr #0 {
  %7 = tail call i32 @BN_cmp(ptr noundef %4, ptr noundef %5) #8
  %.not = icmp eq i32 %7, 0
  br i1 %.not, label %8, label %9

8:                                                ; preds = %6
  tail call void @test_fail_bignum_message(ptr noundef null, ptr noundef %0, i32 noundef %1, ptr noundef nonnull @.str.46, ptr noundef %2, ptr noundef %3, ptr noundef nonnull @.str.14, ptr noundef %4, ptr noundef %5) #8
  br label %9

9:                                                ; preds = %6, %8
  %.0 = phi i32 [ 0, %8 ], [ 1, %6 ]
  ret i32 %.0
}